target datalayout = "e-m:e-p270:32:32-p271:32:32-p272:64:64-i64:64-i128:128-f80:128-n8:16:32:64-S128"
target triple = "x86_64-unknown-linux-gnu"

%"class.node::StreamListener" = type { ptr, ptr, ptr }

; Function Attrs: mustprogress nounwind uwtable
define linkonce_odr dso_local noundef ptr @_ZNK4node14StreamListener6streamEv(ptr noundef nonnull align 8 dereferenceable(24) %this) #4 comdat align 2 {
entry:
  %this.addr = alloca ptr, align 8
  store ptr %this, ptr %this.addr, align 8
  %this1 = load ptr, ptr %this.addr, align 8
  %stream_ = getelementptr inbounds %"class.node::StreamListener", ptr %this1, i32 0, i32 1
  %0 = load ptr, ptr %stream_, align 8
  ret ptr %0
}

; Function Attrs: mustprogress nounwind uwtable
define linkonce_odr dso_local noundef ptr @_ZNK4node6crypto7TLSWrap17underlying_streamEv(ptr noundef nonnull align 8 dereferenceable(457) %this) #4 comdat align 2 {
entry:
  %this.addr = alloca ptr, align 8
  store ptr %this, ptr %this.addr, align 8
  %this1 = load ptr, ptr %this.addr, align 8
  %add.ptr = getelementptr inbounds i8, ptr %this1, i64 120
  %call = call noundef ptr @_ZNK4node14StreamListener6streamEv(ptr noundef nonnull align 8 dereferenceable(24) %add.ptr)
  ret ptr %call
}

; Function Attrs: mustprogress nounwind uwtable
define dso_local noundef zeroext i1 @_ZN4node6crypto7TLSWrap9IsIPCPipeEv(ptr noundef nonnull align 8 dereferenceable(457) %this) unnamed_addr #4 align 2 {
entry:
  %this.addr = alloca ptr, align 8
  store ptr %this, ptr %this.addr, align 8
  %this1 = load ptr, ptr %this.addr, align 8
  %call = call noundef ptr @_ZNK4node6crypto7TLSWrap17underlying_streamEv(ptr noundef nonnull align 8 dereferenceable(457) %this1)
  %vtable = load ptr, ptr %call, align 8
  %vfn = getelementptr inbounds ptr, ptr %vtable, i64 12
  %0 = load ptr, ptr %vfn, align 8
  %call2 = call noundef zeroext i1 %0(ptr noundef nonnull align 8 dereferenceable(64) %call)
  ret i1 %call2
}