; Function Attrs: mustprogress nounwind uwtable
define dso_local noundef zeroext i1 @_ZN4node6crypto7TLSWrap9IsIPCPipeEv(ptr nocapture noundef nonnull readonly align 8 dereferenceable(457) %this) unnamed_addr #3 align 2 {
entry:
  %stream_.i.i = getelementptr inbounds i8, ptr %this, i64 128
  %0 = load ptr, ptr %stream_.i.i, align 8
  %vtable = load ptr, ptr %0, align 8
  %vfn = getelementptr inbounds i8, ptr %vtable, i64 96
  %1 = load ptr, ptr %vfn, align 8
  %call2 = tail call noundef zeroext i1 %1(ptr noundef nonnull align 8 dereferenceable(64) %0) #23
  ret i1 %call2
}